target datalayout = "e-m:e-p270:32:32-p271:32:32-p272:64:64-i64:64-i128:128-f80:128-n8:16:32:64-S128"
target triple = "x86_64-pc-linux-gnu"

%struct.VP9RawFrameHeader = type { i8, i8, i8, i8, i8, i8, i8, i8, i8, i8, i8, i8, i8, i8, i8, i8, [3 x i8], [4 x i8], i8, i8, i8, i8, [3 x i8], i16, i16, i8, i16, i16, i8, i8, i8, i8, i8, i8, [4 x i8], [4 x i8], [2 x i8], [2 x i8], i8, i8, i8, i8, i8, i8, [7 x i8], i8, [3 x i8], i8, i8, [8 x [4 x i8]], [8 x [4 x i8]], [8 x [4 x i8]], i8, i8, i16 }

@.str.61 = private unnamed_addr constant [11 x i8] c"base_q_idx\00", align 1
@.str.62 = private unnamed_addr constant [25 x i8] c"delta_q_y_dc.delta_coded\00", align 1
@.str.63 = private unnamed_addr constant [21 x i8] c"delta_q_y_dc.delta_q\00", align 1
@.str.64 = private unnamed_addr constant [26 x i8] c"delta_q_uv_dc.delta_coded\00", align 1
@.str.65 = private unnamed_addr constant [22 x i8] c"delta_q_uv_dc.delta_q\00", align 1
@.str.66 = private unnamed_addr constant [26 x i8] c"delta_q_uv_ac.delta_coded\00", align 1
@.str.67 = private unnamed_addr constant [22 x i8] c"delta_q_uv_ac.delta_q\00", align 1

; Function Attrs: nounwind uwtable
define internal i32 @cbs_vp9_read_quantization_params(ptr noundef %0, ptr noundef %1, ptr noundef %2) #0 {
  %4 = alloca i32, align 4
  %5 = alloca ptr, align 8
  %6 = alloca ptr, align 8
  %7 = alloca ptr, align 8
  %8 = alloca i32, align 4
  %9 = alloca i32, align 4
  %10 = alloca i32, align 4
  %11 = alloca i8, align 1
  %12 = alloca i8, align 1
  %13 = alloca i32, align 4
  %14 = alloca i32, align 4
  %15 = alloca i8, align 1
  %16 = alloca i8, align 1
  %17 = alloca i32, align 4
  %18 = alloca i32, align 4
  %19 = alloca i8, align 1
  %20 = alloca i8, align 1
  %21 = alloca i32, align 4
  %22 = alloca i32, align 4
  store ptr %0, ptr %5, align 8, !tbaa !4
  store ptr %1, ptr %6, align 8, !tbaa !62
  store ptr %2, ptr %7, align 8, !tbaa !79
  call void @llvm.lifetime.start.p0(i64 4, ptr %8) #8
  br label %23

23:                                               ; preds = %3
  call void @llvm.lifetime.start.p0(i64 4, ptr %9) #8
  br label %24

24:                                               ; preds = %23
  %25 = load ptr, ptr %5, align 8, !tbaa !4
  %26 = load ptr, ptr %6, align 8, !tbaa !62
  %27 = call i32 @ff_cbs_read_simple_unsigned(ptr noundef %25, ptr noundef %26, i32 noundef 8, ptr noundef @.str.61, ptr noundef %9)
  store i32 %27, ptr %8, align 4, !tbaa !11
  %28 = load i32, ptr %8, align 4, !tbaa !11
  %29 = icmp slt i32 %28, 0
  br i1 %29, label %30, label %32

30:                                               ; preds = %24
  %31 = load i32, ptr %8, align 4, !tbaa !11
  store i32 %31, ptr %4, align 4
  store i32 1, ptr %10, align 4
  br label %39

32:                                               ; preds = %24
  br label %33

33:                                               ; preds = %32
  br label %34

34:                                               ; preds = %33
  %35 = load i32, ptr %9, align 4, !tbaa !11
  %36 = trunc i32 %35 to i8
  %37 = load ptr, ptr %7, align 8, !tbaa !79
  %38 = getelementptr inbounds nuw %struct.VP9RawFrameHeader, ptr %37, i32 0, i32 38
  store i8 %36, ptr %38, align 2, !tbaa !141
  store i32 0, ptr %10, align 4
  br label %39

39:                                               ; preds = %34, %30
  call void @llvm.lifetime.end.p0(i64 4, ptr %9) #8
  %40 = load i32, ptr %10, align 4
  switch i32 %40, label %200 [
    i32 0, label %41
  ]

41:                                               ; preds = %39
  br label %42

42:                                               ; preds = %41
  br label %43

43:                                               ; preds = %42
  br label %44

44:                                               ; preds = %43
  call void @llvm.lifetime.start.p0(i64 1, ptr %11) #8
  call void @llvm.lifetime.start.p0(i64 1, ptr %12) #8
  br label %45

45:                                               ; preds = %44
  call void @llvm.lifetime.start.p0(i64 4, ptr %13) #8
  br label %46

46:                                               ; preds = %45
  %47 = load ptr, ptr %5, align 8, !tbaa !4
  %48 = load ptr, ptr %6, align 8, !tbaa !62
  %49 = call i32 @ff_cbs_read_unsigned(ptr noundef %47, ptr noundef %48, i32 noundef 1, ptr noundef @.str.62, ptr noundef null, ptr noundef %13, i32 noundef 0, i32 noundef 1)
  store i32 %49, ptr %8, align 4, !tbaa !11
  %50 = load i32, ptr %8, align 4, !tbaa !11
  %51 = icmp slt i32 %50, 0
  br i1 %51, label %52, label %54

52:                                               ; preds = %46
  %53 = load i32, ptr %8, align 4, !tbaa !11
  store i32 %53, ptr %4, align 4
  store i32 1, ptr %10, align 4
  br label %59

54:                                               ; preds = %46
  br label %55

55:                                               ; preds = %54
  br label %56

56:                                               ; preds = %55
  %57 = load i32, ptr %13, align 4, !tbaa !11
  %58 = trunc i32 %57 to i8
  store i8 %58, ptr %11, align 1, !tbaa !20
  store i32 0, ptr %10, align 4
  br label %59

59:                                               ; preds = %56, %52
  call void @llvm.lifetime.end.p0(i64 4, ptr %13) #8
  %60 = load i32, ptr %10, align 4
  switch i32 %60, label %91 [
    i32 0, label %61
  ]

61:                                               ; preds = %59
  br label %62

62:                                               ; preds = %61
  br label %63

63:                                               ; preds = %62
  %64 = load i8, ptr %11, align 1, !tbaa !20
  %65 = icmp ne i8 %64, 0
  br i1 %65, label %66, label %86

66:                                               ; preds = %63
  br label %67

67:                                               ; preds = %66
  call void @llvm.lifetime.start.p0(i64 4, ptr %14) #8
  br label %68

68:                                               ; preds = %67
  %69 = load ptr, ptr %5, align 8, !tbaa !4
  %70 = load ptr, ptr %6, align 8, !tbaa !62
  %71 = call i32 @cbs_vp9_read_s(ptr noundef %69, ptr noundef %70, i32 noundef 4, ptr noundef @.str.63, ptr noundef null, ptr noundef %14)
  store i32 %71, ptr %8, align 4, !tbaa !11
  %72 = load i32, ptr %8, align 4, !tbaa !11
  %73 = icmp slt i32 %72, 0
  br i1 %73, label %74, label %76

74:                                               ; preds = %68
  %75 = load i32, ptr %8, align 4, !tbaa !11
  store i32 %75, ptr %4, align 4
  store i32 1, ptr %10, align 4
  br label %81

76:                                               ; preds = %68
  br label %77

77:                                               ; preds = %76
  br label %78

78:                                               ; preds = %77
  %79 = load i32, ptr %14, align 4, !tbaa !11
  %80 = trunc i32 %79 to i8
  store i8 %80, ptr %12, align 1, !tbaa !20
  store i32 0, ptr %10, align 4
  br label %81

81:                                               ; preds = %78, %74
  call void @llvm.lifetime.end.p0(i64 4, ptr %14) #8
  %82 = load i32, ptr %10, align 4
  switch i32 %82, label %91 [
    i32 0, label %83
  ]

83:                                               ; preds = %81
  br label %84

84:                                               ; preds = %83
  br label %85

85:                                               ; preds = %84
  br label %87

86:                                               ; preds = %63
  store i8 0, ptr %12, align 1, !tbaa !20
  br label %87

87:                                               ; preds = %86, %85
  %88 = load i8, ptr %12, align 1, !tbaa !20
  %89 = load ptr, ptr %7, align 8, !tbaa !79
  %90 = getelementptr inbounds nuw %struct.VP9RawFrameHeader, ptr %89, i32 0, i32 39
  store i8 %88, ptr %90, align 1, !tbaa !142
  store i32 0, ptr %10, align 4
  br label %91

91:                                               ; preds = %87, %81, %59
  call void @llvm.lifetime.end.p0(i64 1, ptr %12) #8
  call void @llvm.lifetime.end.p0(i64 1, ptr %11) #8
  %92 = load i32, ptr %10, align 4
  switch i32 %92, label %200 [
    i32 0, label %93
  ]

93:                                               ; preds = %91
  br label %94

94:                                               ; preds = %93
  br label %95

95:                                               ; preds = %94
  br label %96

96:                                               ; preds = %95
  call void @llvm.lifetime.start.p0(i64 1, ptr %15) #8
  call void @llvm.lifetime.start.p0(i64 1, ptr %16) #8
  br label %97

97:                                               ; preds = %96
  call void @llvm.lifetime.start.p0(i64 4, ptr %17) #8
  br label %98

98:                                               ; preds = %97
  %99 = load ptr, ptr %5, align 8, !tbaa !4
  %100 = load ptr, ptr %6, align 8, !tbaa !62
  %101 = call i32 @ff_cbs_read_unsigned(ptr noundef %99, ptr noundef %100, i32 noundef 1, ptr noundef @.str.64, ptr noundef null, ptr noundef %17, i32 noundef 0, i32 noundef 1)
  store i32 %101, ptr %8, align 4, !tbaa !11
  %102 = load i32, ptr %8, align 4, !tbaa !11
  %103 = icmp slt i32 %102, 0
  br i1 %103, label %104, label %106

104:                                              ; preds = %98
  %105 = load i32, ptr %8, align 4, !tbaa !11
  store i32 %105, ptr %4, align 4
  store i32 1, ptr %10, align 4
  br label %111

106:                                              ; preds = %98
  br label %107

107:                                              ; preds = %106
  br label %108

108:                                              ; preds = %107
  %109 = load i32, ptr %17, align 4, !tbaa !11
  %110 = trunc i32 %109 to i8
  store i8 %110, ptr %15, align 1, !tbaa !20
  store i32 0, ptr %10, align 4
  br label %111

111:                                              ; preds = %108, %104
  call void @llvm.lifetime.end.p0(i64 4, ptr %17) #8
  %112 = load i32, ptr %10, align 4
  switch i32 %112, label %143 [
    i32 0, label %113
  ]

113:                                              ; preds = %111
  br label %114

114:                                              ; preds = %113
  br label %115

115:                                              ; preds = %114
  %116 = load i8, ptr %15, align 1, !tbaa !20
  %117 = icmp ne i8 %116, 0
  br i1 %117, label %118, label %138

118:                                              ; preds = %115
  br label %119

119:                                              ; preds = %118
  call void @llvm.lifetime.start.p0(i64 4, ptr %18) #8
  br label %120

120:                                              ; preds = %119
  %121 = load ptr, ptr %5, align 8, !tbaa !4
  %122 = load ptr, ptr %6, align 8, !tbaa !62
  %123 = call i32 @cbs_vp9_read_s(ptr noundef %121, ptr noundef %122, i32 noundef 4, ptr noundef @.str.65, ptr noundef null, ptr noundef %18)
  store i32 %123, ptr %8, align 4, !tbaa !11
  %124 = load i32, ptr %8, align 4, !tbaa !11
  %125 = icmp slt i32 %124, 0
  br i1 %125, label %126, label %128

126:                                              ; preds = %120
  %127 = load i32, ptr %8, align 4, !tbaa !11
  store i32 %127, ptr %4, align 4
  store i32 1, ptr %10, align 4
  br label %133

128:                                              ; preds = %120
  br label %129

129:                                              ; preds = %128
  br label %130

130:                                              ; preds = %129
  %131 = load i32, ptr %18, align 4, !tbaa !11
  %132 = trunc i32 %131 to i8
  store i8 %132, ptr %16, align 1, !tbaa !20
  store i32 0, ptr %10, align 4
  br label %133

133:                                              ; preds = %130, %126
  call void @llvm.lifetime.end.p0(i64 4, ptr %18) #8
  %134 = load i32, ptr %10, align 4
  switch i32 %134, label %143 [
    i32 0, label %135
  ]

135:                                              ; preds = %133
  br label %136

136:                                              ; preds = %135
  br label %137

137:                                              ; preds = %136
  br label %139

138:                                              ; preds = %115
  store i8 0, ptr %16, align 1, !tbaa !20
  br label %139

139:                                              ; preds = %138, %137
  %140 = load i8, ptr %16, align 1, !tbaa !20
  %141 = load ptr, ptr %7, align 8, !tbaa !79
  %142 = getelementptr inbounds nuw %struct.VP9RawFrameHeader, ptr %141, i32 0, i32 40
  store i8 %140, ptr %142, align 2, !tbaa !143
  store i32 0, ptr %10, align 4
  br label %143

143:                                              ; preds = %139, %133, %111
  call void @llvm.lifetime.end.p0(i64 1, ptr %16) #8
  call void @llvm.lifetime.end.p0(i64 1, ptr %15) #8
  %144 = load i32, ptr %10, align 4
  switch i32 %144, label %200 [
    i32 0, label %145
  ]

145:                                              ; preds = %143
  br label %146

146:                                              ; preds = %145
  br label %147

147:                                              ; preds = %146
  br label %148

148:                                              ; preds = %147
  call void @llvm.lifetime.start.p0(i64 1, ptr %19) #8
  call void @llvm.lifetime.start.p0(i64 1, ptr %20) #8
  br label %149

149:                                              ; preds = %148
  call void @llvm.lifetime.start.p0(i64 4, ptr %21) #8
  br label %150

150:                                              ; preds = %149
  %151 = load ptr, ptr %5, align 8, !tbaa !4
  %152 = load ptr, ptr %6, align 8, !tbaa !62
  %153 = call i32 @ff_cbs_read_unsigned(ptr noundef %151, ptr noundef %152, i32 noundef 1, ptr noundef @.str.66, ptr noundef null, ptr noundef %21, i32 noundef 0, i32 noundef 1)
  store i32 %153, ptr %8, align 4, !tbaa !11
  %154 = load i32, ptr %8, align 4, !tbaa !11
  %155 = icmp slt i32 %154, 0
  br i1 %155, label %156, label %158

156:                                              ; preds = %150
  %157 = load i32, ptr %8, align 4, !tbaa !11
  store i32 %157, ptr %4, align 4
  store i32 1, ptr %10, align 4
  br label %163

158:                                              ; preds = %150
  br label %159

159:                                              ; preds = %158
  br label %160

160:                                              ; preds = %159
  %161 = load i32, ptr %21, align 4, !tbaa !11
  %162 = trunc i32 %161 to i8
  store i8 %162, ptr %19, align 1, !tbaa !20
  store i32 0, ptr %10, align 4
  br label %163

163:                                              ; preds = %160, %156
  call void @llvm.lifetime.end.p0(i64 4, ptr %21) #8
  %164 = load i32, ptr %10, align 4
  switch i32 %164, label %195 [
    i32 0, label %165
  ]

165:                                              ; preds = %163
  br label %166

166:                                              ; preds = %165
  br label %167

167:                                              ; preds = %166
  %168 = load i8, ptr %19, align 1, !tbaa !20
  %169 = icmp ne i8 %168, 0
  br i1 %169, label %170, label %190

170:                                              ; preds = %167
  br label %171

171:                                              ; preds = %170
  call void @llvm.lifetime.start.p0(i64 4, ptr %22) #8
  br label %172

172:                                              ; preds = %171
  %173 = load ptr, ptr %5, align 8, !tbaa !4
  %174 = load ptr, ptr %6, align 8, !tbaa !62
  %175 = call i32 @cbs_vp9_read_s(ptr noundef %173, ptr noundef %174, i32 noundef 4, ptr noundef @.str.67, ptr noundef null, ptr noundef %22)
  store i32 %175, ptr %8, align 4, !tbaa !11
  %176 = load i32, ptr %8, align 4, !tbaa !11
  %177 = icmp slt i32 %176, 0
  br i1 %177, label %178, label %180

178:                                              ; preds = %172
  %179 = load i32, ptr %8, align 4, !tbaa !11
  store i32 %179, ptr %4, align 4
  store i32 1, ptr %10, align 4
  br label %185

180:                                              ; preds = %172
  br label %181

181:                                              ; preds = %180
  br label %182

182:                                              ; preds = %181
  %183 = load i32, ptr %22, align 4, !tbaa !11
  %184 = trunc i32 %183 to i8
  store i8 %184, ptr %20, align 1, !tbaa !20
  store i32 0, ptr %10, align 4
  br label %185

185:                                              ; preds = %182, %178
  call void @llvm.lifetime.end.p0(i64 4, ptr %22) #8
  %186 = load i32, ptr %10, align 4
  switch i32 %186, label %195 [
    i32 0, label %187
  ]

187:                                              ; preds = %185
  br label %188

188:                                              ; preds = %187
  br label %189

189:                                              ; preds = %188
  br label %191

190:                                              ; preds = %167
  store i8 0, ptr %20, align 1, !tbaa !20
  br label %191

191:                                              ; preds = %190, %189
  %192 = load i8, ptr %20, align 1, !tbaa !20
  %193 = load ptr, ptr %7, align 8, !tbaa !79
  %194 = getelementptr inbounds nuw %struct.VP9RawFrameHeader, ptr %193, i32 0, i32 41
  store i8 %192, ptr %194, align 1, !tbaa !144
  store i32 0, ptr %10, align 4
  br label %195

195:                                              ; preds = %191, %185, %163
  call void @llvm.lifetime.end.p0(i64 1, ptr %20) #8
  call void @llvm.lifetime.end.p0(i64 1, ptr %19) #8
  %196 = load i32, ptr %10, align 4
  switch i32 %196, label %200 [
    i32 0, label %197
  ]

197:                                              ; preds = %195
  br label %198

198:                                              ; preds = %197
  br label %199

199:                                              ; preds = %198
  store i32 0, ptr %4, align 4
  store i32 1, ptr %10, align 4
  br label %200

200:                                              ; preds = %199, %195, %143, %91, %39
  call void @llvm.lifetime.end.p0(i64 4, ptr %8) #8
  %201 = load i32, ptr %4, align 4
  ret i32 %201
}