; Function Attrs: nounwind uwtable
define internal fastcc range(i32 -2147483648, 1) i32 @cbs_vp9_read_quantization_params(ptr noundef %0, ptr noundef nonnull %1, ptr noundef writeonly captures(none) %2) unnamed_addr #0 {
  %4 = alloca i32, align 4
  %5 = alloca i32, align 4
  %6 = alloca i32, align 4
  %7 = alloca i32, align 4
  %8 = alloca i32, align 4
  %9 = alloca i32, align 4
  %10 = alloca i32, align 4
  call void @llvm.lifetime.start.p0(i64 4, ptr nonnull %4) #8
  %11 = call i32 @ff_cbs_read_simple_unsigned(ptr noundef %0, ptr noundef nonnull %1, i32 noundef 8, ptr noundef nonnull @.str.61, ptr noundef nonnull %4) #8
  %12 = icmp sgt i32 %11, -1
  br i1 %12, label %13, label %.critedge

13:                                               ; preds = %3
  %14 = load i32, ptr %4, align 4, !tbaa !22
  %15 = trunc i32 %14 to i8
  %16 = getelementptr inbounds nuw i8, ptr %2, i64 58
  store i8 %15, ptr %16, align 2, !tbaa !128
  call void @llvm.lifetime.end.p0(i64 4, ptr nonnull %4) #8
  call void @llvm.lifetime.start.p0(i64 4, ptr nonnull %5) #8
  %17 = call i32 @ff_cbs_read_unsigned(ptr noundef %0, ptr noundef nonnull %1, i32 noundef 1, ptr noundef nonnull @.str.62, ptr noundef null, ptr noundef nonnull %5, i32 noundef 0, i32 noundef 1) #8
  %18 = icmp sgt i32 %17, -1
  %19 = load i32, ptr %5, align 4
  call void @llvm.lifetime.end.p0(i64 4, ptr nonnull %5) #8
  br i1 %18, label %20, label %.thread

20:                                               ; preds = %13
  %21 = and i32 %19, 255
  %22 = icmp eq i32 %21, 0
  br i1 %22, label %28, label %23

23:                                               ; preds = %20
  call void @llvm.lifetime.start.p0(i64 4, ptr nonnull %6) #8
  %24 = call fastcc i32 @cbs_vp9_read_s(ptr noundef %0, ptr noundef %1, i32 noundef 4, ptr noundef nonnull @.str.63, ptr noundef null, ptr noundef %6)
  %25 = icmp sgt i32 %24, -1
  %26 = load i32, ptr %6, align 4
  %27 = trunc i32 %26 to i8
  call void @llvm.lifetime.end.p0(i64 4, ptr nonnull %6) #8
  br i1 %25, label %28, label %.thread

28:                                               ; preds = %20, %23
  %.162 = phi i8 [ %27, %23 ], [ 0, %20 ]
  %29 = getelementptr inbounds nuw i8, ptr %2, i64 59
  store i8 %.162, ptr %29, align 1, !tbaa !129
  call void @llvm.lifetime.start.p0(i64 4, ptr nonnull %7) #8
  %30 = call i32 @ff_cbs_read_unsigned(ptr noundef %0, ptr noundef nonnull %1, i32 noundef 1, ptr noundef nonnull @.str.64, ptr noundef null, ptr noundef nonnull %7, i32 noundef 0, i32 noundef 1) #8
  %31 = icmp sgt i32 %30, -1
  %32 = load i32, ptr %7, align 4
  call void @llvm.lifetime.end.p0(i64 4, ptr nonnull %7) #8
  br i1 %31, label %33, label %.thread

33:                                               ; preds = %28
  %34 = and i32 %32, 255
  %35 = icmp eq i32 %34, 0
  br i1 %35, label %41, label %36

36:                                               ; preds = %33
  call void @llvm.lifetime.start.p0(i64 4, ptr nonnull %8) #8
  %37 = call fastcc i32 @cbs_vp9_read_s(ptr noundef %0, ptr noundef %1, i32 noundef 4, ptr noundef nonnull @.str.65, ptr noundef null, ptr noundef %8)
  %38 = icmp sgt i32 %37, -1
  %39 = load i32, ptr %8, align 4
  %40 = trunc i32 %39 to i8
  call void @llvm.lifetime.end.p0(i64 4, ptr nonnull %8) #8
  br i1 %38, label %41, label %.thread

41:                                               ; preds = %33, %36
  %.159 = phi i8 [ %40, %36 ], [ 0, %33 ]
  %42 = getelementptr inbounds nuw i8, ptr %2, i64 60
  store i8 %.159, ptr %42, align 2, !tbaa !130
  call void @llvm.lifetime.start.p0(i64 4, ptr nonnull %9) #8
  %43 = call i32 @ff_cbs_read_unsigned(ptr noundef %0, ptr noundef nonnull %1, i32 noundef 1, ptr noundef nonnull @.str.66, ptr noundef null, ptr noundef nonnull %9, i32 noundef 0, i32 noundef 1) #8
  %44 = icmp sgt i32 %43, -1
  %45 = load i32, ptr %9, align 4
  call void @llvm.lifetime.end.p0(i64 4, ptr nonnull %9) #8
  br i1 %44, label %46, label %.thread

46:                                               ; preds = %41
  %47 = and i32 %45, 255
  %48 = icmp eq i32 %47, 0
  br i1 %48, label %54, label %49

49:                                               ; preds = %46
  call void @llvm.lifetime.start.p0(i64 4, ptr nonnull %10) #8
  %50 = call fastcc i32 @cbs_vp9_read_s(ptr noundef %0, ptr noundef %1, i32 noundef 4, ptr noundef nonnull @.str.67, ptr noundef null, ptr noundef %10)
  %51 = icmp sgt i32 %50, -1
  %52 = load i32, ptr %10, align 4
  %53 = trunc i32 %52 to i8
  call void @llvm.lifetime.end.p0(i64 4, ptr nonnull %10) #8
  br i1 %51, label %54, label %.thread

54:                                               ; preds = %46, %49
  %.1 = phi i8 [ %53, %49 ], [ 0, %46 ]
  %55 = getelementptr inbounds nuw i8, ptr %2, i64 61
  store i8 %.1, ptr %55, align 1, !tbaa !131
  br label %.thread

.critedge:                                        ; preds = %3
  call void @llvm.lifetime.end.p0(i64 4, ptr nonnull %4) #8
  br label %.thread

.thread:                                          ; preds = %41, %49, %28, %36, %13, %23, %54, %.critedge
  %.167 = phi i32 [ %11, %.critedge ], [ 0, %54 ], [ %17, %13 ], [ %24, %23 ], [ %30, %28 ], [ %37, %36 ], [ %43, %41 ], [ %50, %49 ]
  ret i32 %.167
}